target datalayout = "e-m:e-p270:32:32-p271:32:32-p272:64:64-i64:64-i128:128-f80:128-n8:16:32:64-S128"
target triple = "x86_64-pc-linux-gnu"

%class.QModelIndex = type { i32, i32, i64, ptr }
%class.QFlags = type { i32 }

; Function Attrs: inlinehint mustprogress null_pointer_is_valid sspstrong uwtable
define linkonce_odr void @_ZNK11QModelIndex7siblingEii(ptr dead_on_unwind noalias writable sret(%class.QModelIndex) align 8 %0, ptr noundef align 8 dereferenceable_or_null(24) %1, i32 noundef %2, i32 noundef %3) #4 comdat align 2 {
  %5 = alloca ptr, align 8
  %6 = alloca i32, align 4
  %7 = alloca i32, align 4
  store ptr %1, ptr %5, align 8
  store i32 %2, ptr %6, align 4
  store i32 %3, ptr %7, align 4
  %8 = load ptr, ptr %5, align 8
  %9 = getelementptr inbounds nuw %class.QModelIndex, ptr %8, i32 0, i32 3
  %10 = load ptr, ptr %9, align 8
  %11 = icmp ne ptr %10, null
  br i1 %11, label %12, label %32

12:                                               ; preds = %4
  %13 = getelementptr inbounds nuw %class.QModelIndex, ptr %8, i32 0, i32 0
  %14 = load i32, ptr %13, align 8
  %15 = load i32, ptr %6, align 4
  %16 = icmp eq i32 %14, %15
  br i1 %16, label %17, label %23

17:                                               ; preds = %12
  %18 = getelementptr inbounds nuw %class.QModelIndex, ptr %8, i32 0, i32 1
  %19 = load i32, ptr %18, align 4
  %20 = load i32, ptr %7, align 4
  %21 = icmp eq i32 %19, %20
  br i1 %21, label %22, label %23

22:                                               ; preds = %17
  call void @llvm.memcpy.p0.p0.i64(ptr align 8 %0, ptr align 8 %8, i64 24, i1 false)
  br label %31

23:                                               ; preds = %17, %12
  %24 = getelementptr inbounds nuw %class.QModelIndex, ptr %8, i32 0, i32 3
  %25 = load ptr, ptr %24, align 8
  %26 = load i32, ptr %6, align 4
  %27 = load i32, ptr %7, align 4
  %28 = load ptr, ptr %25, align 8
  %29 = getelementptr inbounds ptr, ptr %28, i64 14
  %30 = load ptr, ptr %29, align 8
  call void %30(ptr dead_on_unwind writable sret(%class.QModelIndex) align 8 %0, ptr noundef align 8 dereferenceable_or_null(16) %25, i32 noundef %26, i32 noundef %27, ptr noundef align 8 dereferenceable(24) %8)
  br label %31

31:                                               ; preds = %23, %22
  br label %33

32:                                               ; preds = %4
  call void @_ZN11QModelIndexC2Ev(ptr noundef align 8 dereferenceable_or_null(24) %0) #10
  br label %33

33:                                               ; preds = %32, %31
  ret void
}

; Function Attrs: inlinehint mustprogress nounwind null_pointer_is_valid sspstrong uwtable
define linkonce_odr noundef i32 @_ZNK11QModelIndex3rowEv(ptr noundef align 8 dereferenceable_or_null(24) %0) #3 comdat align 2 {
  %2 = alloca ptr, align 8
  store ptr %0, ptr %2, align 8
  %3 = load ptr, ptr %2, align 8
  %4 = getelementptr inbounds nuw %class.QModelIndex, ptr %3, i32 0, i32 0
  %5 = load i32, ptr %4, align 8
  ret i32 %5
}

; Function Attrs: inlinehint mustprogress nounwind null_pointer_is_valid sspstrong uwtable
define linkonce_odr void @_ZN11QModelIndexC2Ev(ptr noundef align 8 dereferenceable_or_null(24) %0) unnamed_addr #3 comdat align 2 {
  %2 = alloca ptr, align 8
  store ptr %0, ptr %2, align 8
  %3 = load ptr, ptr %2, align 8
  %4 = getelementptr inbounds nuw %class.QModelIndex, ptr %3, i32 0, i32 0
  store i32 -1, ptr %4, align 8
  %5 = getelementptr inbounds nuw %class.QModelIndex, ptr %3, i32 0, i32 1
  store i32 -1, ptr %5, align 4
  %6 = getelementptr inbounds nuw %class.QModelIndex, ptr %3, i32 0, i32 2
  store i64 0, ptr %6, align 8
  %7 = getelementptr inbounds nuw %class.QModelIndex, ptr %3, i32 0, i32 3
  store ptr null, ptr %7, align 8
  ret void
}

; Function Attrs: inlinehint mustprogress nounwind null_pointer_is_valid sspstrong uwtable
define linkonce_odr noundef i32 @_ZNK11QModelIndex6columnEv(ptr noundef align 8 dereferenceable_or_null(24) %0) #3 comdat align 2 {
  %2 = alloca ptr, align 8
  store ptr %0, ptr %2, align 8
  %3 = load ptr, ptr %2, align 8
  %4 = getelementptr inbounds nuw %class.QModelIndex, ptr %3, i32 0, i32 1
  %5 = load i32, ptr %4, align 4
  ret i32 %5
}

; Function Attrs: inlinehint mustprogress nounwind null_pointer_is_valid sspstrong uwtable
define linkonce_odr noundef zeroext i1 @_ZNK11QModelIndex7isValidEv(ptr noundef align 8 dereferenceable_or_null(24) %0) #3 comdat align 2 {
  %2 = alloca ptr, align 8
  store ptr %0, ptr %2, align 8
  %3 = load ptr, ptr %2, align 8
  %4 = getelementptr inbounds nuw %class.QModelIndex, ptr %3, i32 0, i32 0
  %5 = load i32, ptr %4, align 8
  %6 = icmp sge i32 %5, 0
  br i1 %6, label %7, label %15

7:                                                ; preds = %1
  %8 = getelementptr inbounds nuw %class.QModelIndex, ptr %3, i32 0, i32 1
  %9 = load i32, ptr %8, align 4
  %10 = icmp sge i32 %9, 0
  br i1 %10, label %11, label %15

11:                                               ; preds = %7
  %12 = getelementptr inbounds nuw %class.QModelIndex, ptr %3, i32 0, i32 3
  %13 = load ptr, ptr %12, align 8
  %14 = icmp ne ptr %13, null
  br label %15

15:                                               ; preds = %11, %7, %1
  %16 = phi i1 [ false, %7 ], [ false, %1 ], [ %14, %11 ]
  ret i1 %16
}

; Function Attrs: mustprogress null_pointer_is_valid sspstrong uwtable
define void @_ZN16TabnavTreeWidget10moveCursorEN17QAbstractItemView12CursorActionE6QFlagsIN2Qt16KeyboardModifierEE(ptr dead_on_unwind noalias writable sret(%class.QModelIndex) align 8 %0, ptr noundef align 8 dereferenceable_or_null(40) %1, i32 noundef %2, i32 %3) unnamed_addr #0 align 2 {
  %5 = alloca %class.QFlags, align 4
  %6 = alloca ptr, align 8
  %7 = alloca i32, align 4
  %8 = alloca %class.QModelIndex, align 8
  %9 = alloca %class.QModelIndex, align 8
  %10 = alloca i32, align 4
  %11 = alloca %class.QFlags, align 4
  %12 = getelementptr inbounds nuw %class.QFlags, ptr %5, i32 0, i32 0
  store i32 %3, ptr %12, align 4
  store ptr %1, ptr %6, align 8
  store i32 %2, ptr %7, align 4
  %13 = load ptr, ptr %6, align 8
  call void @llvm.lifetime.start.p0(i64 24, ptr %8) #10
  call void @_ZNK17QAbstractItemView12currentIndexEv(ptr dead_on_unwind writable sret(%class.QModelIndex) align 8 %8, ptr noundef align 8 dereferenceable_or_null(40) %13)
  %14 = call noundef zeroext i1 @_ZNK11QModelIndex7isValidEv(ptr noundef align 8 dereferenceable_or_null(24) %8) #10
  br i1 %14, label %15, label %44

15:                                               ; preds = %4
  %16 = load i32, ptr %7, align 4
  %17 = icmp eq i32 %16, 8
  br i1 %17, label %18, label %31

18:                                               ; preds = %15
  %19 = call noundef i32 @_ZNK11QModelIndex6columnEv(ptr noundef align 8 dereferenceable_or_null(24) %8) #10
  %20 = call noundef ptr @_ZNK17QAbstractItemView5modelEv(ptr noundef align 8 dereferenceable_or_null(40) %13)
  call void @llvm.lifetime.start.p0(i64 24, ptr %9) #10
  call void @_ZN11QModelIndexC2Ev(ptr noundef align 8 dereferenceable_or_null(24) %9) #10
  %21 = load ptr, ptr %20, align 8
  %22 = getelementptr inbounds ptr, ptr %21, i64 16
  %23 = load ptr, ptr %22, align 8
  %24 = call noundef i32 %23(ptr noundef align 8 dereferenceable_or_null(16) %20, ptr noundef align 8 dereferenceable(24) %9)
  %25 = icmp slt i32 %19, %24
  call void @llvm.lifetime.end.p0(i64 24, ptr %9) #10
  br i1 %25, label %26, label %30

26:                                               ; preds = %18
  %27 = call noundef i32 @_ZNK11QModelIndex3rowEv(ptr noundef align 8 dereferenceable_or_null(24) %8) #10
  %28 = call noundef i32 @_ZNK11QModelIndex6columnEv(ptr noundef align 8 dereferenceable_or_null(24) %8) #10
  %29 = add i32 %28, 1
  call void @_ZNK11QModelIndex7siblingEii(ptr dead_on_unwind writable sret(%class.QModelIndex) align 8 %0, ptr noundef align 8 dereferenceable_or_null(24) %8, i32 noundef %27, i32 noundef %29)
  store i32 1, ptr %10, align 4
  br label %48

30:                                               ; preds = %18
  call void @llvm.memcpy.p0.p0.i64(ptr align 8 %0, ptr align 8 %8, i64 24, i1 false)
  store i32 1, ptr %10, align 4
  br label %48

31:                                               ; preds = %15
  %32 = load i32, ptr %7, align 4
  %33 = icmp eq i32 %32, 9
  br i1 %33, label %34, label %42

34:                                               ; preds = %31
  %35 = call noundef i32 @_ZNK11QModelIndex6columnEv(ptr noundef align 8 dereferenceable_or_null(24) %8) #10
  %36 = icmp sgt i32 %35, 0
  br i1 %36, label %37, label %41

37:                                               ; preds = %34
  %38 = call noundef i32 @_ZNK11QModelIndex3rowEv(ptr noundef align 8 dereferenceable_or_null(24) %8) #10
  %39 = call noundef i32 @_ZNK11QModelIndex6columnEv(ptr noundef align 8 dereferenceable_or_null(24) %8) #10
  %40 = sub i32 %39, 1
  call void @_ZNK11QModelIndex7siblingEii(ptr dead_on_unwind writable sret(%class.QModelIndex) align 8 %0, ptr noundef align 8 dereferenceable_or_null(24) %8, i32 noundef %38, i32 noundef %40)
  store i32 1, ptr %10, align 4
  br label %48

41:                                               ; preds = %34
  call void @llvm.memcpy.p0.p0.i64(ptr align 8 %0, ptr align 8 %8, i64 24, i1 false)
  store i32 1, ptr %10, align 4
  br label %48

42:                                               ; preds = %31
  br label %43

43:                                               ; preds = %42
  br label %44

44:                                               ; preds = %43, %4
  %45 = load i32, ptr %7, align 4
  call void @llvm.memcpy.p0.p0.i64(ptr align 4 %11, ptr align 4 %5, i64 4, i1 false)
  %46 = getelementptr inbounds nuw %class.QFlags, ptr %11, i32 0, i32 0
  %47 = load i32, ptr %46, align 4
  call void @_ZN9QTreeView10moveCursorEN17QAbstractItemView12CursorActionE6QFlagsIN2Qt16KeyboardModifierEE(ptr dead_on_unwind writable sret(%class.QModelIndex) align 8 %0, ptr noundef align 8 dereferenceable_or_null(40) %13, i32 noundef %45, i32 %47)
  store i32 1, ptr %10, align 4
  br label %48

48:                                               ; preds = %44, %41, %37, %30, %26
  call void @llvm.lifetime.end.p0(i64 24, ptr %8) #10
  ret void
}