; Function Attrs: mustprogress null_pointer_is_valid sspstrong uwtable
define void @_ZN16TabnavTreeWidget10moveCursorEN17QAbstractItemView12CursorActionE6QFlagsIN2Qt16KeyboardModifierEE(ptr dead_on_unwind noalias writable sret(%class.QModelIndex) align 8 %0, ptr noundef align 8 dereferenceable_or_null(40) %1, i32 noundef %2, i32 %3) unnamed_addr #0 align 2 {
  %5 = alloca %class.QModelIndex, align 8
  %6 = alloca %class.QModelIndex, align 8
  call void @llvm.lifetime.start.p0(i64 24, ptr nonnull %5) #11
  call void @_ZNK17QAbstractItemView12currentIndexEv(ptr dead_on_unwind nonnull writable sret(%class.QModelIndex) align 8 %5, ptr noundef align 8 dereferenceable_or_null(40) %1)
  %7 = load i32, ptr %5, align 8
  %8 = icmp sgt i32 %7, -1
  %9 = getelementptr inbounds nuw i8, ptr %5, i64 4
  %10 = load i32, ptr %9, align 4
  %11 = icmp sgt i32 %10, -1
  %or.cond = select i1 %8, i1 %11, i1 false
  %12 = getelementptr inbounds nuw i8, ptr %5, i64 16
  %13 = load ptr, ptr %12, align 8
  %14 = icmp ne ptr %13, null
  %or.cond10 = select i1 %or.cond, i1 %14, i1 false
  br i1 %or.cond10, label %15, label %_ZNK11QModelIndex7isValidEv.exit.thread

15:                                               ; preds = %4
  switch i32 %2, label %_ZNK11QModelIndex7isValidEv.exit.thread [
    i32 8, label %16
    i32 9, label %38
  ]

16:                                               ; preds = %15
  %17 = call noundef ptr @_ZNK17QAbstractItemView5modelEv(ptr noundef align 8 dereferenceable_or_null(40) %1)
  call void @llvm.lifetime.start.p0(i64 24, ptr nonnull %6) #11
  store i32 -1, ptr %6, align 8
  %18 = getelementptr inbounds nuw i8, ptr %6, i64 4
  store i32 -1, ptr %18, align 4
  %19 = getelementptr inbounds nuw i8, ptr %6, i64 8
  call void @llvm.memset.p0.i64(ptr noundef nonnull align 8 dereferenceable(16) %19, i8 0, i64 16, i1 false)
  %20 = load ptr, ptr %17, align 8
  %21 = getelementptr inbounds nuw i8, ptr %20, i64 128
  %22 = load ptr, ptr %21, align 8
  %23 = call noundef i32 %22(ptr noundef align 8 dereferenceable_or_null(16) %17, ptr noundef nonnull align 8 dereferenceable(24) %6)
  %24 = icmp slt i32 %10, %23
  call void @llvm.lifetime.end.p0(i64 24, ptr nonnull %6) #11
  br i1 %24, label %25, label %37

25:                                               ; preds = %16
  %26 = load i32, ptr %5, align 8
  %27 = load i32, ptr %9, align 4
  call void @llvm.experimental.noalias.scope.decl(metadata !6)
  %28 = load ptr, ptr %12, align 8, !noalias !6
  %.not.i = icmp eq ptr %28, null
  br i1 %.not.i, label %34, label %29

29:                                               ; preds = %25
  %30 = add i32 %27, 1
  %31 = load ptr, ptr %28, align 8, !noalias !6
  %32 = getelementptr inbounds nuw i8, ptr %31, i64 112
  %33 = load ptr, ptr %32, align 8, !noalias !6
  call void %33(ptr dead_on_unwind writable sret(%class.QModelIndex) align 8 %0, ptr noundef nonnull align 8 dereferenceable_or_null(16) %28, i32 noundef %26, i32 noundef %30, ptr noundef nonnull align 8 dereferenceable(24) dereferenceable_or_null(24) %5)
  br label %_ZNK11QModelIndex7siblingEii.exit

34:                                               ; preds = %25
  store i32 -1, ptr %0, align 8, !alias.scope !6
  %35 = getelementptr inbounds nuw i8, ptr %0, i64 4
  store i32 -1, ptr %35, align 4, !alias.scope !6
  %36 = getelementptr inbounds nuw i8, ptr %0, i64 8
  call void @llvm.memset.p0.i64(ptr noundef nonnull align 8 dereferenceable(16) %36, i8 0, i64 16, i1 false), !alias.scope !6
  br label %_ZNK11QModelIndex7siblingEii.exit

37:                                               ; preds = %16
  call void @llvm.memcpy.p0.p0.i64(ptr noundef align 8 dereferenceable(24) %0, ptr noundef nonnull align 8 dereferenceable(24) %5, i64 24, i1 false)
  br label %_ZNK11QModelIndex7siblingEii.exit

38:                                               ; preds = %15
  %.not = icmp eq i32 %10, 0
  br i1 %.not, label %44, label %39

39:                                               ; preds = %38
  %40 = add nsw i32 %10, -1
  %41 = load ptr, ptr %13, align 8, !noalias !9
  %42 = getelementptr inbounds nuw i8, ptr %41, i64 112
  %43 = load ptr, ptr %42, align 8, !noalias !9
  call void %43(ptr dead_on_unwind writable sret(%class.QModelIndex) align 8 %0, ptr noundef nonnull align 8 dereferenceable_or_null(16) %13, i32 noundef %7, i32 noundef %40, ptr noundef nonnull align 8 dereferenceable(24) dereferenceable_or_null(24) %5)
  br label %_ZNK11QModelIndex7siblingEii.exit

44:                                               ; preds = %38
  call void @llvm.memcpy.p0.p0.i64(ptr noundef align 8 dereferenceable(24) %0, ptr noundef nonnull align 8 dereferenceable(24) %5, i64 24, i1 false)
  br label %_ZNK11QModelIndex7siblingEii.exit

_ZNK11QModelIndex7isValidEv.exit.thread:          ; preds = %4, %15
  call void @_ZN9QTreeView10moveCursorEN17QAbstractItemView12CursorActionE6QFlagsIN2Qt16KeyboardModifierEE(ptr dead_on_unwind writable sret(%class.QModelIndex) align 8 %0, ptr noundef align 8 dereferenceable_or_null(40) %1, i32 noundef %2, i32 %3)
  br label %_ZNK11QModelIndex7siblingEii.exit

_ZNK11QModelIndex7siblingEii.exit:                ; preds = %39, %34, %29, %_ZNK11QModelIndex7isValidEv.exit.thread, %44, %37
  call void @llvm.lifetime.end.p0(i64 24, ptr nonnull %5) #11
  ret void
}